; Function Attrs: mustprogress uwtable
define noundef zeroext i1 @_ZN7xgboost16GHistIndexMatrix14ReadColumnPageEPNS_6common25AlignedResourceReadStreamE(ptr noundef nonnull align 8 dereferenceable(233) %0, ptr noundef %1) local_unnamed_addr #3 align 2 {
  %3 = getelementptr inbounds nuw i8, ptr %0, i64 200
  %4 = load ptr, ptr %3, align 8, !tbaa !3
  %5 = getelementptr inbounds nuw i8, ptr %0, i64 168
  %6 = tail call noundef nonnull align 8 dereferenceable(24) ptr @_ZNK7xgboost16HostDeviceVectorIjE15ConstHostVectorEv(ptr noundef nonnull align 8 dereferenceable(8) %5)
  %7 = load ptr, ptr %6, align 8, !tbaa !95
  %8 = tail call noundef zeroext i1 @_ZN7xgboost6common12ColumnMatrix4ReadEPNS0_25AlignedResourceReadStreamEPKj(ptr noundef nonnull align 8 dereferenceable(218) %4, ptr noundef %1, ptr noundef %7)
  ret i1 %8
}